target datalayout = "e-m:e-p270:32:32-p271:32:32-p272:64:64-i64:64-i128:128-f80:128-n8:16:32:64-S128"
target triple = "x86_64-pc-linux-gnu"

%"struct.std::array" = type { [4 x %"struct.llvm::MSP430AttributeParser::DisplayHandler"] }
%"struct.llvm::MSP430AttributeParser::DisplayHandler" = type { i32, { i64, i64 } }
%"class.llvm::Error" = type { ptr }
%"class.llvm::ErrorSuccess" = type { %"class.llvm::Error" }

; Function Attrs: mustprogress nounwind uwtable
define linkonce_odr hidden void @_ZN4llvm5Error6setPtrEPNS_13ErrorInfoBaseE(ptr noundef nonnull align 8 dereferenceable(8) %0, ptr noundef %1) #0 comdat align 2 {
  %3 = alloca ptr, align 8
  %4 = alloca ptr, align 8
  store ptr %0, ptr %3, align 8
  store ptr %1, ptr %4, align 8
  %5 = load ptr, ptr %3, align 8
  %6 = load ptr, ptr %4, align 8
  %7 = getelementptr inbounds nuw %"class.llvm::Error", ptr %5, i32 0, i32 0
  store ptr %6, ptr %7, align 8
  ret void
}

; Function Attrs: mustprogress nounwind uwtable
define linkonce_odr hidden void @_ZN4llvm5ErrorC2Ev(ptr noundef nonnull align 8 dereferenceable(8) %0) unnamed_addr #0 comdat align 2 {
  %2 = alloca ptr, align 8
  store ptr %0, ptr %2, align 8
  %3 = load ptr, ptr %2, align 8
  %4 = getelementptr inbounds nuw %"class.llvm::Error", ptr %3, i32 0, i32 0
  store ptr null, ptr %4, align 8
  call void @_ZN4llvm5Error6setPtrEPNS_13ErrorInfoBaseE(ptr noundef nonnull align 8 dereferenceable(8) %3, ptr noundef null)
  call void @_ZN4llvm5Error10setCheckedEb(ptr noundef nonnull align 8 dereferenceable(8) %3, i1 noundef zeroext false)
  ret void
}

; Function Attrs: mustprogress nounwind uwtable
define linkonce_odr hidden noundef ptr @_ZNSt14__array_traitsIN4llvm21MSP430AttributeParser14DisplayHandlerELm4EE6_S_ptrERA4_KS2_(ptr noundef nonnull align 8 dereferenceable(96) %0) #0 comdat align 2 {
  %2 = alloca ptr, align 8
  store ptr %0, ptr %2, align 8
  %3 = load ptr, ptr %2, align 8
  %4 = getelementptr inbounds [4 x %"struct.llvm::MSP430AttributeParser::DisplayHandler"], ptr %3, i64 0, i64 0
  ret ptr %4
}

; Function Attrs: mustprogress nounwind uwtable
define linkonce_odr hidden noundef nonnull align 8 dereferenceable(8) ptr @_ZN4llvm5ErroraSEOS0_(ptr noundef nonnull align 8 dereferenceable(8) %0, ptr noundef nonnull align 8 dereferenceable(8) %1) #0 comdat align 2 {
  %3 = alloca ptr, align 8
  %4 = alloca ptr, align 8
  store ptr %0, ptr %3, align 8
  store ptr %1, ptr %4, align 8
  %5 = load ptr, ptr %3, align 8
  call void @_ZN4llvm5Error15assertIsCheckedEv(ptr noundef nonnull align 8 dereferenceable(8) %5)
  %6 = load ptr, ptr %4, align 8
  %7 = call noundef ptr @_ZNK4llvm5Error6getPtrEv(ptr noundef nonnull align 8 dereferenceable(8) %6)
  call void @_ZN4llvm5Error6setPtrEPNS_13ErrorInfoBaseE(ptr noundef nonnull align 8 dereferenceable(8) %5, ptr noundef %7)
  call void @_ZN4llvm5Error10setCheckedEb(ptr noundef nonnull align 8 dereferenceable(8) %5, i1 noundef zeroext false)
  %8 = load ptr, ptr %4, align 8
  call void @_ZN4llvm5Error6setPtrEPNS_13ErrorInfoBaseE(ptr noundef nonnull align 8 dereferenceable(8) %8, ptr noundef null)
  %9 = load ptr, ptr %4, align 8
  call void @_ZN4llvm5Error10setCheckedEb(ptr noundef nonnull align 8 dereferenceable(8) %9, i1 noundef zeroext true)
  ret ptr %5
}

; Function Attrs: mustprogress nounwind uwtable
define linkonce_odr hidden void @_ZN4llvm12ErrorSuccessC2Ev(ptr noundef nonnull align 8 dereferenceable(8) %0) unnamed_addr #0 comdat align 2 {
  %2 = alloca ptr, align 8
  store ptr %0, ptr %2, align 8
  %3 = load ptr, ptr %2, align 8
  call void @_ZN4llvm5ErrorC2Ev(ptr noundef nonnull align 8 dereferenceable(8) %3)
  ret void
}

; Function Attrs: mustprogress nounwind uwtable
define linkonce_odr hidden void @_ZN4llvm5Error15assertIsCheckedEv(ptr noundef nonnull align 8 dereferenceable(8) %0) #0 comdat align 2 {
  %2 = alloca ptr, align 8
  store ptr %0, ptr %2, align 8
  ret void
}

; Function Attrs: mustprogress nounwind uwtable
define linkonce_odr hidden void @_ZN4llvm5Error10setCheckedEb(ptr noundef nonnull align 8 dereferenceable(8) %0, i1 noundef zeroext %1) #0 comdat align 2 {
  %3 = alloca ptr, align 8
  %4 = alloca i8, align 1
  store ptr %0, ptr %3, align 8
  %5 = zext i1 %1 to i8
  store i8 %5, ptr %4, align 1
  ret void
}

; Function Attrs: mustprogress nounwind uwtable
define linkonce_odr hidden noundef ptr @_ZNK4llvm5Error6getPtrEv(ptr noundef nonnull align 8 dereferenceable(8) %0) #0 comdat align 2 {
  %2 = alloca ptr, align 8
  store ptr %0, ptr %2, align 8
  %3 = load ptr, ptr %2, align 8
  %4 = getelementptr inbounds nuw %"class.llvm::Error", ptr %3, i32 0, i32 0
  %5 = load ptr, ptr %4, align 8
  ret ptr %5
}

; Function Attrs: mustprogress nounwind uwtable
define linkonce_odr hidden noundef ptr @_ZNKSt5arrayIN4llvm21MSP430AttributeParser14DisplayHandlerELm4EE4dataEv(ptr noundef nonnull align 8 dereferenceable(96) %0) #0 comdat align 2 {
  %2 = alloca ptr, align 8
  store ptr %0, ptr %2, align 8
  %3 = load ptr, ptr %2, align 8
  %4 = getelementptr inbounds nuw %"struct.std::array", ptr %3, i32 0, i32 0
  %5 = call noundef ptr @_ZNSt14__array_traitsIN4llvm21MSP430AttributeParser14DisplayHandlerELm4EE6_S_ptrERA4_KS2_(ptr noundef nonnull align 8 dereferenceable(96) %4) #5
  ret ptr %5
}

; Function Attrs: mustprogress nounwind uwtable
define linkonce_odr hidden void @_ZN4llvm12ErrorSuccessD2Ev(ptr noundef nonnull align 8 dereferenceable(8) %0) unnamed_addr #0 comdat align 2 {
  %2 = alloca ptr, align 8
  store ptr %0, ptr %2, align 8
  %3 = load ptr, ptr %2, align 8
  call void @_ZN4llvm5ErrorD2Ev(ptr noundef nonnull align 8 dereferenceable(8) %3) #5
  ret void
}

; Function Attrs: mustprogress nounwind uwtable
define linkonce_odr hidden void @_ZN4llvm5ErrorC2EOS0_(ptr noundef nonnull align 8 dereferenceable(8) %0, ptr noundef nonnull align 8 dereferenceable(8) %1) unnamed_addr #0 comdat align 2 {
  %3 = alloca ptr, align 8
  %4 = alloca ptr, align 8
  store ptr %0, ptr %3, align 8
  store ptr %1, ptr %4, align 8
  %5 = load ptr, ptr %3, align 8
  %6 = getelementptr inbounds nuw %"class.llvm::Error", ptr %5, i32 0, i32 0
  store ptr null, ptr %6, align 8
  call void @_ZN4llvm5Error10setCheckedEb(ptr noundef nonnull align 8 dereferenceable(8) %5, i1 noundef zeroext true)
  %7 = load ptr, ptr %4, align 8
  %8 = call noundef nonnull align 8 dereferenceable(8) ptr @_ZN4llvm5ErroraSEOS0_(ptr noundef nonnull align 8 dereferenceable(8) %5, ptr noundef nonnull align 8 dereferenceable(8) %7)
  ret void
}

; Function Attrs: mustprogress nounwind uwtable
define linkonce_odr hidden void @_ZN4llvm5Error7successEv(ptr dead_on_unwind noalias writable sret(%"class.llvm::ErrorSuccess") align 8 %0) #0 comdat align 2 {
  %2 = alloca ptr, align 8
  store ptr %0, ptr %2, align 8
  call void @llvm.memset.p0.i64(ptr align 8 %0, i8 0, i64 8, i1 false)
  call void @_ZN4llvm12ErrorSuccessC2Ev(ptr noundef nonnull align 8 dereferenceable(8) %0)
  ret void
}

; Function Attrs: mustprogress nounwind uwtable
define linkonce_odr hidden void @_ZN4llvm5ErrorD2Ev(ptr noundef nonnull align 8 dereferenceable(8) %0) unnamed_addr #0 comdat align 2 {
  %2 = alloca ptr, align 8
  store ptr %0, ptr %2, align 8
  %3 = load ptr, ptr %2, align 8
  call void @_ZN4llvm5Error15assertIsCheckedEv(ptr noundef nonnull align 8 dereferenceable(8) %3)
  %4 = call noundef ptr @_ZNK4llvm5Error6getPtrEv(ptr noundef nonnull align 8 dereferenceable(8) %3)
  %5 = icmp eq ptr %4, null
  br i1 %5, label %10, label %6

6:                                                ; preds = %1
  %7 = load ptr, ptr %4, align 8
  %8 = getelementptr inbounds ptr, ptr %7, i64 1
  %9 = load ptr, ptr %8, align 8
  call void %9(ptr noundef nonnull align 8 dereferenceable(8) %4) #5
  br label %10

10:                                               ; preds = %6, %1
  ret void
}

; Function Attrs: mustprogress nounwind uwtable
define linkonce_odr hidden noundef zeroext i1 @_ZN4llvm5ErrorcvbEv(ptr noundef nonnull align 8 dereferenceable(8) %0) #0 comdat align 2 {
  %2 = alloca ptr, align 8
  store ptr %0, ptr %2, align 8
  %3 = load ptr, ptr %2, align 8
  %4 = call noundef ptr @_ZNK4llvm5Error6getPtrEv(ptr noundef nonnull align 8 dereferenceable(8) %3)
  %5 = icmp eq ptr %4, null
  call void @_ZN4llvm5Error10setCheckedEb(ptr noundef nonnull align 8 dereferenceable(8) %3, i1 noundef zeroext %5)
  %6 = call noundef ptr @_ZNK4llvm5Error6getPtrEv(ptr noundef nonnull align 8 dereferenceable(8) %3)
  %7 = icmp ne ptr %6, null
  ret i1 %7
}

; Function Attrs: mustprogress nounwind uwtable
define linkonce_odr hidden noundef ptr @_ZNKSt5arrayIN4llvm21MSP430AttributeParser14DisplayHandlerELm4EE3endEv(ptr noundef nonnull align 8 dereferenceable(96) %0) #0 comdat align 2 {
  %2 = alloca ptr, align 8
  store ptr %0, ptr %2, align 8
  %3 = load ptr, ptr %2, align 8
  %4 = call noundef ptr @_ZNKSt5arrayIN4llvm21MSP430AttributeParser14DisplayHandlerELm4EE4dataEv(ptr noundef nonnull align 8 dereferenceable(96) %3) #5
  %5 = getelementptr inbounds %"struct.llvm::MSP430AttributeParser::DisplayHandler", ptr %4, i64 4
  ret ptr %5
}

; Function Attrs: mustprogress nounwind uwtable
define linkonce_odr hidden noundef ptr @_ZNKSt5arrayIN4llvm21MSP430AttributeParser14DisplayHandlerELm4EE5beginEv(ptr noundef nonnull align 8 dereferenceable(96) %0) #0 comdat align 2 {
  %2 = alloca ptr, align 8
  store ptr %0, ptr %2, align 8
  %3 = load ptr, ptr %2, align 8
  %4 = call noundef ptr @_ZNKSt5arrayIN4llvm21MSP430AttributeParser14DisplayHandlerELm4EE4dataEv(ptr noundef nonnull align 8 dereferenceable(96) %3) #5
  ret ptr %4
}

; Function Attrs: mustprogress nounwind uwtable
define dso_local void @_ZN4llvm21MSP430AttributeParser7handlerEmRb(ptr dead_on_unwind noalias writable sret(%"class.llvm::Error") align 8 %0, ptr noundef nonnull align 8 dereferenceable(200) %1, i64 noundef %2, ptr noundef nonnull align 1 dereferenceable(1) %3) unnamed_addr #0 align 2 {
  %5 = alloca ptr, align 8
  %6 = alloca ptr, align 8
  %7 = alloca i64, align 8
  %8 = alloca ptr, align 8
  %9 = alloca ptr, align 8
  %10 = alloca ptr, align 8
  %11 = alloca ptr, align 8
  %12 = alloca ptr, align 8
  %13 = alloca i1, align 1
  %14 = alloca i32, align 4
  %15 = alloca %"class.llvm::ErrorSuccess", align 8
  store ptr %0, ptr %5, align 8
  store ptr %1, ptr %6, align 8
  store i64 %2, ptr %7, align 8
  store ptr %3, ptr %8, align 8
  %16 = load ptr, ptr %6, align 8
  %17 = load ptr, ptr %8, align 8
  store i8 0, ptr %17, align 1
  store ptr @_ZN4llvm21MSP430AttributeParser15DisplayRoutinesE, ptr %9, align 8
  %18 = call noundef ptr @_ZNKSt5arrayIN4llvm21MSP430AttributeParser14DisplayHandlerELm4EE5beginEv(ptr noundef nonnull align 8 dereferenceable(96) @_ZN4llvm21MSP430AttributeParser15DisplayRoutinesE) #5
  store ptr %18, ptr %10, align 8
  %19 = call noundef ptr @_ZNKSt5arrayIN4llvm21MSP430AttributeParser14DisplayHandlerELm4EE3endEv(ptr noundef nonnull align 8 dereferenceable(96) @_ZN4llvm21MSP430AttributeParser15DisplayRoutinesE) #5
  store ptr %19, ptr %11, align 8
  br label %20

20:                                               ; preds = %63, %4
  %21 = load ptr, ptr %10, align 8
  %22 = load ptr, ptr %11, align 8
  %23 = icmp ne ptr %21, %22
  br i1 %23, label %24, label %66

24:                                               ; preds = %20
  %25 = load ptr, ptr %10, align 8
  store ptr %25, ptr %12, align 8
  %26 = load ptr, ptr %12, align 8
  %27 = getelementptr inbounds nuw %"struct.llvm::MSP430AttributeParser::DisplayHandler", ptr %26, i32 0, i32 0
  %28 = load i32, ptr %27, align 8
  %29 = zext i32 %28 to i64
  %30 = load i64, ptr %7, align 8
  %31 = icmp ne i64 %29, %30
  br i1 %31, label %32, label %33

32:                                               ; preds = %24
  br label %63

33:                                               ; preds = %24
  store i1 false, ptr %13, align 1
  %34 = load ptr, ptr %12, align 8
  %35 = getelementptr inbounds nuw %"struct.llvm::MSP430AttributeParser::DisplayHandler", ptr %34, i32 0, i32 1
  %36 = load { i64, i64 }, ptr %35, align 8
  %37 = extractvalue { i64, i64 } %36, 1
  %38 = getelementptr inbounds i8, ptr %16, i64 %37
  %39 = extractvalue { i64, i64 } %36, 0
  %40 = and i64 %39, 1
  %41 = icmp ne i64 %40, 0
  br i1 %41, label %42, label %47

42:                                               ; preds = %33
  %43 = load ptr, ptr %38, align 8
  %44 = sub i64 %39, 1
  %45 = getelementptr i8, ptr %43, i64 %44, !nosanitize !4
  %46 = load ptr, ptr %45, align 8, !nosanitize !4
  br label %49

47:                                               ; preds = %33
  %48 = inttoptr i64 %39 to ptr
  br label %49

49:                                               ; preds = %47, %42
  %50 = phi ptr [ %46, %42 ], [ %48, %47 ]
  %51 = load i64, ptr %7, align 8
  %52 = trunc i64 %51 to i32
  call void %50(ptr dead_on_unwind writable sret(%"class.llvm::Error") align 8 %0, ptr noundef nonnull align 8 dereferenceable(200) %38, i32 noundef %52)
  %53 = call noundef zeroext i1 @_ZN4llvm5ErrorcvbEv(ptr noundef nonnull align 8 dereferenceable(8) %0)
  br i1 %53, label %54, label %55

54:                                               ; preds = %49
  store i1 true, ptr %13, align 1
  store i32 1, ptr %14, align 4
  br label %56

55:                                               ; preds = %49
  store i32 0, ptr %14, align 4
  br label %56

56:                                               ; preds = %55, %54
  %57 = load i1, ptr %13, align 1
  br i1 %57, label %59, label %58

58:                                               ; preds = %56
  call void @_ZN4llvm5ErrorD2Ev(ptr noundef nonnull align 8 dereferenceable(8) %0) #5
  br label %59

59:                                               ; preds = %58, %56
  %60 = load i32, ptr %14, align 4
  switch i32 %60, label %68 [
    i32 0, label %61
    i32 1, label %67
  ]

61:                                               ; preds = %59
  %62 = load ptr, ptr %8, align 8
  store i8 1, ptr %62, align 1
  br label %66

63:                                               ; preds = %32
  %64 = load ptr, ptr %10, align 8
  %65 = getelementptr inbounds %"struct.llvm::MSP430AttributeParser::DisplayHandler", ptr %64, i32 1
  store ptr %65, ptr %10, align 8
  br label %20

66:                                               ; preds = %61, %20
  call void @_ZN4llvm5Error7successEv(ptr dead_on_unwind writable sret(%"class.llvm::ErrorSuccess") align 8 %15)
  call void @_ZN4llvm5ErrorC2EOS0_(ptr noundef nonnull align 8 dereferenceable(8) %0, ptr noundef nonnull align 8 dereferenceable(8) %15)
  call void @_ZN4llvm12ErrorSuccessD2Ev(ptr noundef nonnull align 8 dereferenceable(8) %15) #5
  br label %67

67:                                               ; preds = %66, %59
  ret void

68:                                               ; preds = %59
  unreachable
}