; Function Attrs: mustprogress nounwind uwtable
define dso_local void @_ZN4llvm21MSP430AttributeParser7handlerEmRb(ptr dead_on_unwind noalias writable sret(%"class.llvm::Error") align 8 %0, ptr noundef nonnull align 8 dereferenceable(200) %1, i64 noundef %2, ptr noundef nonnull writeonly align 1 captures(none) dereferenceable(1) initializes((0, 1)) %3) unnamed_addr #0 align 2 {
  store i8 0, ptr %3, align 1
  br label %6

5:                                                ; preds = %6
  %.013.add = add nuw nsw i64 %.013.idx22, 24
  %.not = icmp eq i64 %.013.add, 96
  br i1 %.not, label %_ZN4llvm12ErrorSuccessD2Ev.exit, label %6

6:                                                ; preds = %4, %5
  %.013.idx22 = phi i64 [ 0, %4 ], [ %.013.add, %5 ]
  %.013.ptr23 = getelementptr inbounds nuw i8, ptr @_ZN4llvm21MSP430AttributeParser15DisplayRoutinesE, i64 %.013.idx22
  %7 = load i32, ptr %.013.ptr23, align 8
  %8 = zext i32 %7 to i64
  %.not15 = icmp eq i64 %2, %8
  br i1 %.not15, label %9, label %5

9:                                                ; preds = %6
  %10 = getelementptr inbounds nuw i8, ptr %.013.ptr23, i64 8
  %.unpack = load i64, ptr %10, align 8
  %.elt16 = getelementptr inbounds nuw i8, ptr %.013.ptr23, i64 16
  %.unpack17 = load i64, ptr %.elt16, align 8
  %11 = getelementptr inbounds i8, ptr %1, i64 %.unpack17
  %12 = and i64 %.unpack, 1
  %.not18 = icmp eq i64 %12, 0
  br i1 %.not18, label %18, label %13

13:                                               ; preds = %9
  %14 = load ptr, ptr %11, align 8
  %15 = getelementptr i8, ptr %14, i64 %.unpack
  %16 = getelementptr i8, ptr %15, i64 -1
  %17 = load ptr, ptr %16, align 8, !nosanitize !4
  br label %_ZN4llvm5ErrorD2Ev.exit

18:                                               ; preds = %9
  %19 = inttoptr i64 %.unpack to ptr
  br label %_ZN4llvm5ErrorD2Ev.exit

_ZN4llvm5ErrorD2Ev.exit:                          ; preds = %18, %13
  %20 = phi ptr [ %17, %13 ], [ %19, %18 ]
  %21 = trunc nuw i64 %2 to i32
  tail call void %20(ptr dead_on_unwind writable sret(%"class.llvm::Error") align 8 %0, ptr noundef nonnull align 8 dereferenceable(200) %11, i32 noundef %21) #5
  %22 = load ptr, ptr %0, align 8
  %.not20 = icmp eq ptr %22, null
  br i1 %.not20, label %23, label %24

23:                                               ; preds = %_ZN4llvm5ErrorD2Ev.exit
  store i8 1, ptr %3, align 1
  br label %_ZN4llvm12ErrorSuccessD2Ev.exit

_ZN4llvm12ErrorSuccessD2Ev.exit:                  ; preds = %5, %23
  store ptr null, ptr %0, align 8
  br label %24

24:                                               ; preds = %_ZN4llvm5ErrorD2Ev.exit, %_ZN4llvm12ErrorSuccessD2Ev.exit
  ret void
}